#SYMBOLS
Index	Identifier	Type	Flag	Data	Size	RefCount
0	__D0followLine	6	1	0	4	8
1	__D0main	6	1	4	4	11
2	__D0SetSensorLight_inline_main	6	1	8	4	2
3	__CLSRMutex3	9	0	12	4	2
4	__RLSBmutex3	9	0	16	4	4
5	__D0avoidObtacle	6	1	20	4	12
6	__DU0SetSensorLight_inline_main	5	1	24	4	5
7	__signed_stack_001main	6	1	28	4	2
8	__constValf1P8	10	0	32	4	2
9	__Wait_7qG2_ms_7qG2_000_inline_avoidObtacle	5	1	36	4	10
10	__D0SetSensorLowspeed_inline_main	6	1	40	4	2
11	__DU0SetSensorLowspeed_inline_main	5	1	44	4	5
12	__signed_stack_001followLine	6	1	48	4	8
13	__CLSCSMutex3	9	0	52	4	2
14	__CLSWMutex3	9	0	56	4	2
15	__followLine_7qG2_motorA_7qG2_000	4	1	60	2	2
16	__followLine_7qG2_sensorLight_7qG2_000	4	1	62	2	3
17	__main_7qG2_sensorLight_7qG2_001	4	1	64	2	2
18	__followLine_7qG2_motorC_7qG2_000	4	1	66	2	2
19	____initialize_global_data_return	1	1	68	1	3
20	__SetSensorLight_7qG2_port_7qG2_000_inline_main	1	1	69	1	4
21	__SetSensorLight_7qG2_bActive_7qG2_000_inline_main	1	1	70	1	2
22	__constVal96	2	0	71	1	10
23	__constVal32	2	0	72	1	30
24	__avoidObtacle_return	1	1	73	1	3
25	__constVal63	2	0	74	1	10
26	__SetSensorType_7qG2_port_7qG2_000_inline_SetSensorLowspeed_inline_main	1	1	75	1	2
27	__SetSensorLowspeed_7qG2_bIsPowered_7qG2_000_inline_main	1	1	76	1	2
28	__SetSensorType_7qG2_type_7qG2_000_inline_SetSensorLowspeed_inline_main	1	1	77	1	2
29	__SetSensorMode_7qG2_mode_7qG2_000_inline_SetSensorLowspeed_inline_main	1	1	78	1	2
30	__SetSensorMode_7qG2_port_7qG2_000_inline_SetSensorLowspeed_inline_main	1	1	79	1	2
31	__SetSensorType_7qG2_type_7qG2_000_inline_SetSensorLight_inline_main	1	1	80	1	2
32	__SetSensorType_7qG2_port_7qG2_000_inline_SetSensorLight_inline_main	1	1	81	1	2
33	__SetSensorMode_7qG2_port_7qG2_000_inline_SetSensorLight_inline_main	1	1	82	1	2
34	__SetSensorLowspeed_7qG2_port_7qG2_000_inline_main	1	1	83	1	4
35	__SetSensorMode_7qG2_mode_7qG2_000_inline_SetSensorLight_inline_main	1	1	84	1	2
36	__constVal2	2	0	85	1	4
37	__LSWriteOptions3	1	1	86	1	1
38	____ResetSensorSubroutine_return	1	1	87	1	4
39	____ReadLSBytes3_return	1	1	88	1	4
40	__RLSBResult3	2	1	89	1	7
41	__RLSBytesCount3	1	1	90	1	8
42	__RLSBIterations3	1	1	91	1	4
43	__constVal0	2	1	92	1	36
44	__constVal1	2	0	93	1	4
45	__followLine_return	1	1	94	1	3
46	__constVal3	2	0	95	1	11
47	__ResetSensorTmp	1	1	96	1	2
48	__ResetSensorPort	1	1	97	1	4
49	__CLSRArgs3	8	0	4	12	5
50	__CLSRArgs3.Result	2	1	100	1	5
51	__CLSRArgs3.Port	1	1	101	1	5
52	__CLSRArgs3.Buffer	7	0	102	4	5
53	__CLSRArgs3.Buffer.Buffer_type	1	0	0	1	0
54	__CLSRArgs3.BufferLen	1	1	104	1	5
55	__CLSWArgs3	8	0	4	12	5
56	__CLSWArgs3.Result	2	1	108	1	5
57	__CLSWArgs3.Port	1	1	109	1	5
58	__CLSWArgs3.Buffer	7	0	110	4	5
59	__CLSWArgs3.Buffer.Buffer_type	1	0	0	1	0
60	__CLSWArgs3.ReturnLen	1	1	112	1	5
61	__CLSCSArgs3	8	0	3	4	4
62	__CLSCSArgs3.Result	2	1	116	1	4
63	__CLSCSArgs3.Port	1	1	117	1	4
64	__CLSCSArgs3.BytesReady	1	1	118	1	4
65	__RLSLastGoodRead3	7	0	120	4	2
66	__RLSLastGoodRead3.__RLSLastGoodRead3_type	1	0	0	1	0
67	__OUT_AC	7	0	122	4	4
68	__OUT_AC.__OUT_AC_type	1	0	0	1	0
69	__RLSReadBuf3	7	0	124	4	10
70	__RLSReadBuf3.__RLSReadBuf3_type	1	0	0	1	0
71	__RLSBbufLSWrite1	7	0	126	4	2
72	__RLSBbufLSWrite1.__RLSBbufLSWrite1_type	1	0	0	1	0
#SOURCES
Clump	Line	PC	Source
0	44	0	#line 44 "C:\Users\NGUYEN~1\AppData\Local\Temp\temp.nxc"
0	45	0		subcall __initialize_global_data, ____initialize_global_data_return
0	44	2	#line 44 "C:\Users\NGUYEN~1\AppData\Local\Temp\temp.nxc"
0	44	2	#line 44 "C:\Users\NGUYEN~1\AppData\Local\Temp\temp.nxc"
0	45	2		set __SetSensorLight_7qG2_port_7qG2_000_inline_main, 2
0	44	5	#line 44 "C:\Users\NGUYEN~1\AppData\Local\Temp\temp.nxc"
0	45	5	#line 45 "C:\Users\NGUYEN~1\AppData\Local\Temp\temp.nxc"
0	46	5		mov __SetSensorLight_7qG2_bActive_7qG2_000_inline_main, __constVal1
0	4313	7	#line 4313 "NXCDefs.h"
0	4314	7		mov __SetSensorType_7qG2_port_7qG2_000_inline_SetSensorLight_inline_main, __SetSensorLight_7qG2_port_7qG2_000_inline_main
0	4313	9	#line 4313 "NXCDefs.h"
0	4313	9	#line 4313 "NXCDefs.h"
0	4314	9		mov __DU0SetSensorLight_inline_main, __SetSensorLight_7qG2_bActive_7qG2_000_inline_main
0	4313	11	#line 4313 "NXCDefs.h"
0	4314	11		tst 5, __D0SetSensorLight_inline_main, __DU0SetSensorLight_inline_main
0	4313	14	#line 4313 "NXCDefs.h"
0	4314	14		brtst 4, __001__ASM_Label_4, __D0SetSensorLight_inline_main
0	4313	17	#line 4313 "NXCDefs.h"
0	4314	17		set __DU0SetSensorLight_inline_main, 5
0	4313	20	#line 4313 "NXCDefs.h"
0	4313	20	#line 4313 "NXCDefs.h"
0	4314	20		jmp __001__ASM_Label_5
0	4313	22	#line 4313 "NXCDefs.h"
0	4314	22		set __DU0SetSensorLight_inline_main, 6
0	4313	25	#line 4313 "NXCDefs.h"
0	4313	25	#line 4313 "NXCDefs.h"
0	4314	25		mov __SetSensorType_7qG2_type_7qG2_000_inline_SetSensorLight_inline_main, __DU0SetSensorLight_inline_main
0	4247	27	#line 4247 "NXCDefs.h"
0	4248	27		setin __SetSensorType_7qG2_type_7qG2_000_inline_SetSensorLight_inline_main, __SetSensorType_7qG2_port_7qG2_000_inline_SetSensorLight_inline_main, 0
0	4247	31	#line 4247 "NXCDefs.h"
0	4314	31	#line 4314 "NXCDefs.h"
0	4314	31	#line 4314 "NXCDefs.h"
0	4315	31		mov __SetSensorMode_7qG2_port_7qG2_000_inline_SetSensorLight_inline_main, __SetSensorLight_7qG2_port_7qG2_000_inline_main
0	4314	33	#line 4314 "NXCDefs.h"
0	4314	33	#line 4314 "NXCDefs.h"
0	4315	33		set __SetSensorMode_7qG2_mode_7qG2_000_inline_SetSensorLight_inline_main, 128
0	4314	36	#line 4314 "NXCDefs.h"
0	4260	36	#line 4260 "NXCDefs.h"
0	4261	36		setin __SetSensorMode_7qG2_mode_7qG2_000_inline_SetSensorLight_inline_main, __SetSensorMode_7qG2_port_7qG2_000_inline_SetSensorLight_inline_main, 1
0	4260	40	#line 4260 "NXCDefs.h"
0	4315	40	#line 4315 "NXCDefs.h"
0	4315	40	#line 4315 "NXCDefs.h"
0	4315	40	#line 4315 "NXCDefs.h"
0	4278	40	#line 4278 "NXCDefs.h"
0	4279	40	#pragma macro 4
0	4279	40		mov __ResetSensorPort, __SetSensorLight_7qG2_port_7qG2_000_inline_main
0	4279	42		subcall __ResetSensorSubroutine, ____ResetSensorSubroutine_return
0	6360	44	#line 6360 "NXCDefs.h"
0	4278	44	#line 4278 "NXCDefs.h"
0	4316	44	#line 4316 "NXCDefs.h"
0	45	44	#line 45 "C:\Users\NGUYEN~1\AppData\Local\Temp\temp.nxc"
0	45	44	#line 45 "C:\Users\NGUYEN~1\AppData\Local\Temp\temp.nxc"
0	46	44		set __SetSensorLowspeed_7qG2_port_7qG2_000_inline_main, 3
0	45	47	#line 45 "C:\Users\NGUYEN~1\AppData\Local\Temp\temp.nxc"
0	47	47	#line 47 "C:\Users\NGUYEN~1\AppData\Local\Temp\temp.nxc"
0	48	47		mov __SetSensorLowspeed_7qG2_bIsPowered_7qG2_000_inline_main, __constVal1
0	4342	49	#line 4342 "NXCDefs.h"
0	4343	49		mov __SetSensorType_7qG2_port_7qG2_000_inline_SetSensorLowspeed_inline_main, __SetSensorLowspeed_7qG2_port_7qG2_000_inline_main
0	4342	51	#line 4342 "NXCDefs.h"
0	4342	51	#line 4342 "NXCDefs.h"
0	4343	51		mov __DU0SetSensorLowspeed_inline_main, __SetSensorLowspeed_7qG2_bIsPowered_7qG2_000_inline_main
0	4342	53	#line 4342 "NXCDefs.h"
0	4343	53		tst 5, __D0SetSensorLowspeed_inline_main, __DU0SetSensorLowspeed_inline_main
0	4342	56	#line 4342 "NXCDefs.h"
0	4343	56		brtst 4, __004__ASM_Label_36, __D0SetSensorLowspeed_inline_main
0	4342	59	#line 4342 "NXCDefs.h"
0	4343	59		set __DU0SetSensorLowspeed_inline_main, 11
0	4342	62	#line 4342 "NXCDefs.h"
0	4342	62	#line 4342 "NXCDefs.h"
0	4343	62		jmp __004__ASM_Label_37
0	4342	64	#line 4342 "NXCDefs.h"
0	4343	64		set __DU0SetSensorLowspeed_inline_main, 10
0	4342	67	#line 4342 "NXCDefs.h"
0	4342	67	#line 4342 "NXCDefs.h"
0	4343	67		mov __SetSensorType_7qG2_type_7qG2_000_inline_SetSensorLowspeed_inline_main, __DU0SetSensorLowspeed_inline_main
0	4247	69	#line 4247 "NXCDefs.h"
0	4248	69		setin __SetSensorType_7qG2_type_7qG2_000_inline_SetSensorLowspeed_inline_main, __SetSensorType_7qG2_port_7qG2_000_inline_SetSensorLowspeed_inline_main, 0
0	4247	73	#line 4247 "NXCDefs.h"
0	4343	73	#line 4343 "NXCDefs.h"
0	4343	73	#line 4343 "NXCDefs.h"
0	4344	73		mov __SetSensorMode_7qG2_port_7qG2_000_inline_SetSensorLowspeed_inline_main, __SetSensorLowspeed_7qG2_port_7qG2_000_inline_main
0	4343	75	#line 4343 "NXCDefs.h"
0	4343	75	#line 4343 "NXCDefs.h"
0	4344	75		set __SetSensorMode_7qG2_mode_7qG2_000_inline_SetSensorLowspeed_inline_main, 0
0	4343	78	#line 4343 "NXCDefs.h"
0	4260	78	#line 4260 "NXCDefs.h"
0	4261	78		setin __SetSensorMode_7qG2_mode_7qG2_000_inline_SetSensorLowspeed_inline_main, __SetSensorMode_7qG2_port_7qG2_000_inline_SetSensorLowspeed_inline_main, 1
0	4260	82	#line 4260 "NXCDefs.h"
0	4344	82	#line 4344 "NXCDefs.h"
0	4344	82	#line 4344 "NXCDefs.h"
0	4344	82	#line 4344 "NXCDefs.h"
0	4278	82	#line 4278 "NXCDefs.h"
0	4279	82	#pragma macro 4
0	4279	82		mov __ResetSensorPort, __SetSensorLowspeed_7qG2_port_7qG2_000_inline_main
0	4279	84		subcall __ResetSensorSubroutine, ____ResetSensorSubroutine_return
0	6451	86	#line 6451 "NXCDefs.h"
0	4278	86	#line 4278 "NXCDefs.h"
0	4345	86	#line 4345 "NXCDefs.h"
0	47	86	#line 47 "C:\Users\NGUYEN~1\AppData\Local\Temp\temp.nxc"
0	48	86	#line 48 "C:\Users\NGUYEN~1\AppData\Local\Temp\temp.nxc"
0	49	86		set __D0main, 1
0	50	89	#line 50 "C:\Users\NGUYEN~1\AppData\Local\Temp\temp.nxc"
0	51	89		tst 5, __D0main, __D0main
0	50	92	#line 50 "C:\Users\NGUYEN~1\AppData\Local\Temp\temp.nxc"
0	51	92		brtst 4, __ASM_Label_643, __D0main
0	50	95	#line 50 "C:\Users\NGUYEN~1\AppData\Local\Temp\temp.nxc"
0	51	95		getin __main_7qG2_sensorLight_7qG2_001, __constVal2, 4
0	50	99	#line 50 "C:\Users\NGUYEN~1\AppData\Local\Temp\temp.nxc"
0	51	99	#line 51 "C:\Users\NGUYEN~1\AppData\Local\Temp\temp.nxc"
0	52	99	#pragma macro 26
0	52	99		acquire __RLSBmutex3
0	52	100		mov __RLSReadBuf3, __RLSBbufLSWrite1
0	52	102		set __RLSBytesCount3, 1
0	52	105		wait 15
0	52	107		subcall __ReadLSBytes3, ____ReadLSBytes3_return
0	52	109		index __D0main, __RLSReadBuf3, 65535
0	52	113		release __RLSBmutex3
0	6477	114	#line 6477 "C:\Users\NGUYEN~1\AppData\Local\Temp\temp.nxc"
0	51	114	#line 51 "C:\Users\NGUYEN~1\AppData\Local\Temp\temp.nxc"
0	54	114	#line 54 "C:\Users\NGUYEN~1\AppData\Local\Temp\temp.nxc"
0	55	114	#pragma macro 26
0	55	114		acquire __RLSBmutex3
0	55	115		mov __RLSReadBuf3, __RLSBbufLSWrite1
0	55	117		set __RLSBytesCount3, 1
0	55	120		wait 15
0	55	122		subcall __ReadLSBytes3, ____ReadLSBytes3_return
0	55	124		index __D0main, __RLSReadBuf3, 65535
0	55	128		release __RLSBmutex3
0	6483	129	#line 6483 "C:\Users\NGUYEN~1\AppData\Local\Temp\temp.nxc"
0	54	129	#line 54 "C:\Users\NGUYEN~1\AppData\Local\Temp\temp.nxc"
0	55	129		mov __signed_stack_001main, __D0main
0	55	131	#line 55 "C:\Users\NGUYEN~1\AppData\Local\Temp\temp.nxc"
0	56	131		set __D0main, 33
0	55	134	#line 55 "C:\Users\NGUYEN~1\AppData\Local\Temp\temp.nxc"
0	56	134		cmp 2, __D0main, __signed_stack_001main, __D0main
0	56	138	#line 56 "C:\Users\NGUYEN~1\AppData\Local\Temp\temp.nxc"
0	57	138		brtst 4, __ASM_Label_652, __D0main
0	57	141	#line 57 "C:\Users\NGUYEN~1\AppData\Local\Temp\temp.nxc"
0	58	141	#pragma macro 7
0	58	141		setout __OUT_AC, 2, __constVal0, 1, __constVal3, 8, __constVal0, 6, __constVal32, 7, __constVal0, 5, __constVal0, 10, __constVal96, 11, __constVal32, 12, __constVal32, 0, __constVal63
0	6497	164	#line 6497 "C:\Users\NGUYEN~1\AppData\Local\Temp\temp.nxc"
0	57	164	#line 57 "C:\Users\NGUYEN~1\AppData\Local\Temp\temp.nxc"
0	59	164	#line 59 "C:\Users\NGUYEN~1\AppData\Local\Temp\temp.nxc"
0	60	164		subcall avoidObtacle, __avoidObtacle_return
0	59	166	#line 59 "C:\Users\NGUYEN~1\AppData\Local\Temp\temp.nxc"
0	61	166	#line 61 "C:\Users\NGUYEN~1\AppData\Local\Temp\temp.nxc"
0	62	166		jmp __ASM_Label_653
0	61	168	#line 61 "C:\Users\NGUYEN~1\AppData\Local\Temp\temp.nxc"
0	62	168		mov __followLine_7qG2_sensorLight_7qG2_000, __main_7qG2_sensorLight_7qG2_001
0	61	170	#line 61 "C:\Users\NGUYEN~1\AppData\Local\Temp\temp.nxc"
0	63	170	#line 63 "C:\Users\NGUYEN~1\AppData\Local\Temp\temp.nxc"
0	64	170		subcall followLine, __followLine_return
0	63	172	#line 63 "C:\Users\NGUYEN~1\AppData\Local\Temp\temp.nxc"
0	63	172	#line 63 "C:\Users\NGUYEN~1\AppData\Local\Temp\temp.nxc"
0	66	172	#line 66 "C:\Users\NGUYEN~1\AppData\Local\Temp\temp.nxc"
0	67	172		jmp __ASM_Label_642
0	66	174	#line 66 "C:\Users\NGUYEN~1\AppData\Local\Temp\temp.nxc"
0	67	174		exit -1, -1
1	5476	0		setin __constVal1, __ResetSensorPort, 5
1	5478	4		getin __ResetSensorTmp, __ResetSensorPort, 5
1	5479	8		brtst 5, __SensorStillInvalid, __ResetSensorTmp
1	5480	11		subret ____ResetSensorSubroutine_return
2	6393	0	#pragma macro 25
2	6393	0		acquire __CLSWMutex3
2	6393	1		or __CLSWArgs3.Port, __constVal3, __LSWriteOptions3
2	6393	5		mov __CLSWArgs3.ReturnLen, __RLSBytesCount3
2	6393	7		mov __CLSWArgs3.Buffer, __RLSReadBuf3
2	6393	9		syscall 21, __CLSWArgs3
2	6393	12		mov __RLSBResult3, __CLSWArgs3.Result
2	6393	14		release __CLSWMutex3
2	6393	15	#line 6393 "NXTDefs.h"
2	6394	15		brtst 5, __RLSBError3, __RLSBResult3
2	6395	18		set __RLSBIterations3, 60
2	6397	21	#pragma macro 23
2	6397	21		acquire __CLSCSMutex3
2	6397	22		set __CLSCSArgs3.Port, 3
2	6397	25		syscall 23, __CLSCSArgs3
2	6397	28		mov __RLSBytesCount3, __CLSCSArgs3.BytesReady
2	6397	30		mov __RLSBResult3, __CLSCSArgs3.Result
2	6397	32		release __CLSCSMutex3
2	6397	33	#line 6397 "NXTDefs.h"
2	6398	33		sub __RLSBIterations3, __RLSBIterations3, __constVal1
2	6399	37		brtst 2, __RLSBError3, __RLSBIterations3
2	6400	40		brtst 0, __RLSBError3, __RLSBResult3
2	6401	43		brtst 4, __RLSBReadyToRead3, __RLSBResult3
2	6403	46		wait 1
2	6404	48		jmp __RLSBDoCheckStatus3
2	6406	50		brtst 4, __RLSBReturn3, __RLSBytesCount3
2	6407	53		arrinit __RLSReadBuf3, __constVal0, __RLSBytesCount3
2	6409	57	#pragma macro 25
2	6409	57		acquire __CLSRMutex3
2	6409	58		set __CLSRArgs3.Port, 3
2	6409	61		mov __CLSRArgs3.BufferLen, __RLSBytesCount3
2	6409	63		syscall 22, __CLSRArgs3
2	6409	66		mov __RLSReadBuf3, __CLSRArgs3.Buffer
2	6409	68		mov __RLSBResult3, __CLSRArgs3.Result
2	6409	70		release __CLSRMutex3
2	6409	71	#line 6409 "NXTDefs.h"
2	6410	71		brtst 5, __RLSBError3, __RLSBResult3
2	6411	74		mov __RLSLastGoodRead3, __RLSReadBuf3
2	6412	76		jmp __RLSBDone3
2	6414	78		mov __RLSReadBuf3, __RLSLastGoodRead3
2	6416	80		arrsize __RLSBytesCount3, __RLSReadBuf3
2	6418	83		subret ____ReadLSBytes3_return
3	12	0	#line 12 "C:\Users\NGUYEN~1\AppData\Local\Temp\temp.nxc"
3	13	0		set __signed_stack_001followLine, 70
3	12	3	#line 12 "C:\Users\NGUYEN~1\AppData\Local\Temp\temp.nxc"
3	12	3	#line 12 "C:\Users\NGUYEN~1\AppData\Local\Temp\temp.nxc"
3	13	3		mov __D0followLine, __followLine_7qG2_sensorLight_7qG2_000
3	12	5	#line 12 "C:\Users\NGUYEN~1\AppData\Local\Temp\temp.nxc"
3	13	5		sub __signed_stack_001followLine, __signed_stack_001followLine, __D0followLine
3	12	9	#line 12 "C:\Users\NGUYEN~1\AppData\Local\Temp\temp.nxc"
3	15	9	#line 15 "C:\Users\NGUYEN~1\AppData\Local\Temp\temp.nxc"
3	15	9	#line 15 "C:\Users\NGUYEN~1\AppData\Local\Temp\temp.nxc"
3	16	9		mul __followLine_7qG2_motorC_7qG2_000, __signed_stack_001followLine, __constValf1P8
3	15	13	#line 15 "C:\Users\NGUYEN~1\AppData\Local\Temp\temp.nxc"
3	15	13	#line 15 "C:\Users\NGUYEN~1\AppData\Local\Temp\temp.nxc"
3	16	13		mov __signed_stack_001followLine, __followLine_7qG2_sensorLight_7qG2_000
3	15	15	#line 15 "C:\Users\NGUYEN~1\AppData\Local\Temp\temp.nxc"
3	15	15	#line 15 "C:\Users\NGUYEN~1\AppData\Local\Temp\temp.nxc"
3	16	15		set __D0followLine, 38
3	15	18	#line 15 "C:\Users\NGUYEN~1\AppData\Local\Temp\temp.nxc"
3	16	18		sub __signed_stack_001followLine, __signed_stack_001followLine, __D0followLine
3	15	22	#line 15 "C:\Users\NGUYEN~1\AppData\Local\Temp\temp.nxc"
3	17	22	#line 17 "C:\Users\NGUYEN~1\AppData\Local\Temp\temp.nxc"
3	17	22	#line 17 "C:\Users\NGUYEN~1\AppData\Local\Temp\temp.nxc"
3	18	22		mul __followLine_7qG2_motorA_7qG2_000, __signed_stack_001followLine, __constValf1P8
3	17	26	#line 17 "C:\Users\NGUYEN~1\AppData\Local\Temp\temp.nxc"
3	17	26	#line 17 "C:\Users\NGUYEN~1\AppData\Local\Temp\temp.nxc"
3	18	26		mov __D0followLine, __followLine_7qG2_motorA_7qG2_000
3	19	28	#line 19 "C:\Users\NGUYEN~1\AppData\Local\Temp\temp.nxc"
3	20	28	#pragma macro 7
3	20	28		setout __constVal0, 2, __D0followLine, 1, __constVal3, 8, __constVal0, 6, __constVal32, 7, __constVal0, 5, __constVal0, 10, __constVal96, 11, __constVal32, 12, __constVal32, 0, __constVal63
3	6173	51	#line 6173 "C:\Users\NGUYEN~1\AppData\Local\Temp\temp.nxc"
3	19	51	#line 19 "C:\Users\NGUYEN~1\AppData\Local\Temp\temp.nxc"
3	19	51	#line 19 "C:\Users\NGUYEN~1\AppData\Local\Temp\temp.nxc"
3	20	51		mov __D0followLine, __followLine_7qG2_motorC_7qG2_000
3	21	53	#line 21 "C:\Users\NGUYEN~1\AppData\Local\Temp\temp.nxc"
3	22	53	#pragma macro 7
3	22	53		setout __constVal2, 2, __D0followLine, 1, __constVal3, 8, __constVal0, 6, __constVal32, 7, __constVal0, 5, __constVal0, 10, __constVal96, 11, __constVal32, 12, __constVal32, 0, __constVal63
3	6180	76	#line 6180 "C:\Users\NGUYEN~1\AppData\Local\Temp\temp.nxc"
3	21	76	#line 21 "C:\Users\NGUYEN~1\AppData\Local\Temp\temp.nxc"
3	24	76	#line 24 "C:\Users\NGUYEN~1\AppData\Local\Temp\temp.nxc"
3	25	76		subret __followLine_return
4	27	0	#line 27 "C:\Users\NGUYEN~1\AppData\Local\Temp\temp.nxc"
4	28	0		set __D0avoidObtacle, 55
4	28	3	#line 28 "C:\Users\NGUYEN~1\AppData\Local\Temp\temp.nxc"
4	29	3	#pragma macro 7
4	29	3		setout __constVal0, 2, __D0avoidObtacle, 1, __constVal3, 8, __constVal0, 6, __constVal32, 7, __constVal0, 5, __constVal0, 10, __constVal96, 11, __constVal32, 12, __constVal32, 0, __constVal63
4	6190	26	#line 6190 "C:\Users\NGUYEN~1\AppData\Local\Temp\temp.nxc"
4	28	26	#line 28 "C:\Users\NGUYEN~1\AppData\Local\Temp\temp.nxc"
4	28	26	#line 28 "C:\Users\NGUYEN~1\AppData\Local\Temp\temp.nxc"
4	29	26		set __D0avoidObtacle, 0
4	29	29	#line 29 "C:\Users\NGUYEN~1\AppData\Local\Temp\temp.nxc"
4	30	29	#pragma macro 7
4	30	29		setout __constVal2, 2, __D0avoidObtacle, 1, __constVal3, 8, __constVal0, 6, __constVal32, 7, __constVal0, 5, __constVal0, 10, __constVal96, 11, __constVal32, 12, __constVal32, 0, __constVal63
4	6195	52	#line 6195 "C:\Users\NGUYEN~1\AppData\Local\Temp\temp.nxc"
4	29	52	#line 29 "C:\Users\NGUYEN~1\AppData\Local\Temp\temp.nxc"
4	29	52	#line 29 "C:\Users\NGUYEN~1\AppData\Local\Temp\temp.nxc"
4	30	52		set __Wait_7qG2_ms_7qG2_000_inline_avoidObtacle, 720
4	29	55	#line 29 "C:\Users\NGUYEN~1\AppData\Local\Temp\temp.nxc"
4	8551	55	#line 8551 "NXCDefs.h"
4	8552	55		waitv __Wait_7qG2_ms_7qG2_000_inline_avoidObtacle
4	8551	57	#line 8551 "NXCDefs.h"
4	30	57	#line 30 "C:\Users\NGUYEN~1\AppData\Local\Temp\temp.nxc"
4	30	57	#line 30 "C:\Users\NGUYEN~1\AppData\Local\Temp\temp.nxc"
4	31	57		set __D0avoidObtacle, 50
4	31	60	#line 31 "C:\Users\NGUYEN~1\AppData\Local\Temp\temp.nxc"
4	32	60	#pragma macro 7
4	32	60		setout __OUT_AC, 2, __D0avoidObtacle, 1, __constVal3, 8, __constVal0, 6, __constVal32, 7, __constVal0, 5, __constVal0, 10, __constVal96, 11, __constVal32, 12, __constVal32, 0, __constVal63
4	6212	83	#line 6212 "C:\Users\NGUYEN~1\AppData\Local\Temp\temp.nxc"
4	31	83	#line 31 "C:\Users\NGUYEN~1\AppData\Local\Temp\temp.nxc"
4	31	83	#line 31 "C:\Users\NGUYEN~1\AppData\Local\Temp\temp.nxc"
4	32	83		set __Wait_7qG2_ms_7qG2_000_inline_avoidObtacle, 1900
4	31	86	#line 31 "C:\Users\NGUYEN~1\AppData\Local\Temp\temp.nxc"
4	8551	86	#line 8551 "NXCDefs.h"
4	8552	86		waitv __Wait_7qG2_ms_7qG2_000_inline_avoidObtacle
4	8551	88	#line 8551 "NXCDefs.h"
4	32	88	#line 32 "C:\Users\NGUYEN~1\AppData\Local\Temp\temp.nxc"
4	33	88	#line 33 "C:\Users\NGUYEN~1\AppData\Local\Temp\temp.nxc"
4	34	88	#pragma macro 7
4	34	88		setout __OUT_AC, 2, __constVal0, 1, __constVal3, 8, __constVal0, 6, __constVal32, 7, __constVal0, 5, __constVal0, 10, __constVal96, 11, __constVal32, 12, __constVal32, 0, __constVal63
4	6223	111	#line 6223 "C:\Users\NGUYEN~1\AppData\Local\Temp\temp.nxc"
4	33	111	#line 33 "C:\Users\NGUYEN~1\AppData\Local\Temp\temp.nxc"
4	33	111	#line 33 "C:\Users\NGUYEN~1\AppData\Local\Temp\temp.nxc"
4	34	111		set __Wait_7qG2_ms_7qG2_000_inline_avoidObtacle, 1
4	33	114	#line 33 "C:\Users\NGUYEN~1\AppData\Local\Temp\temp.nxc"
4	8551	114	#line 8551 "NXCDefs.h"
4	8552	114		waitv __Wait_7qG2_ms_7qG2_000_inline_avoidObtacle
4	8551	116	#line 8551 "NXCDefs.h"
4	36	116	#line 36 "C:\Users\NGUYEN~1\AppData\Local\Temp\temp.nxc"
4	36	116	#line 36 "C:\Users\NGUYEN~1\AppData\Local\Temp\temp.nxc"
4	37	116		set __D0avoidObtacle, 0
4	37	119	#line 37 "C:\Users\NGUYEN~1\AppData\Local\Temp\temp.nxc"
4	38	119	#pragma macro 7
4	38	119		setout __constVal0, 2, __D0avoidObtacle, 1, __constVal3, 8, __constVal0, 6, __constVal32, 7, __constVal0, 5, __constVal0, 10, __constVal96, 11, __constVal32, 12, __constVal32, 0, __constVal63
4	6236	142	#line 6236 "C:\Users\NGUYEN~1\AppData\Local\Temp\temp.nxc"
4	37	142	#line 37 "C:\Users\NGUYEN~1\AppData\Local\Temp\temp.nxc"
4	37	142	#line 37 "C:\Users\NGUYEN~1\AppData\Local\Temp\temp.nxc"
4	38	142		set __D0avoidObtacle, 40
4	38	145	#line 38 "C:\Users\NGUYEN~1\AppData\Local\Temp\temp.nxc"
4	39	145	#pragma macro 7
4	39	145		setout __constVal2, 2, __D0avoidObtacle, 1, __constVal3, 8, __constVal0, 6, __constVal32, 7, __constVal0, 5, __constVal0, 10, __constVal96, 11, __constVal32, 12, __constVal32, 0, __constVal63
4	6241	168	#line 6241 "C:\Users\NGUYEN~1\AppData\Local\Temp\temp.nxc"
4	38	168	#line 38 "C:\Users\NGUYEN~1\AppData\Local\Temp\temp.nxc"
4	38	168	#line 38 "C:\Users\NGUYEN~1\AppData\Local\Temp\temp.nxc"
4	39	168		set __Wait_7qG2_ms_7qG2_000_inline_avoidObtacle, 720
4	38	171	#line 38 "C:\Users\NGUYEN~1\AppData\Local\Temp\temp.nxc"
4	8551	171	#line 8551 "NXCDefs.h"
4	8552	171		waitv __Wait_7qG2_ms_7qG2_000_inline_avoidObtacle
4	8551	173	#line 8551 "NXCDefs.h"
4	39	173	#line 39 "C:\Users\NGUYEN~1\AppData\Local\Temp\temp.nxc"
4	39	173	#line 39 "C:\Users\NGUYEN~1\AppData\Local\Temp\temp.nxc"
4	40	173		set __D0avoidObtacle, 50
4	40	176	#line 40 "C:\Users\NGUYEN~1\AppData\Local\Temp\temp.nxc"
4	41	176	#pragma macro 7
4	41	176		setout __OUT_AC, 2, __D0avoidObtacle, 1, __constVal3, 8, __constVal0, 6, __constVal32, 7, __constVal0, 5, __constVal0, 10, __constVal96, 11, __constVal32, 12, __constVal32, 0, __constVal63
4	6254	199	#line 6254 "C:\Users\NGUYEN~1\AppData\Local\Temp\temp.nxc"
4	40	199	#line 40 "C:\Users\NGUYEN~1\AppData\Local\Temp\temp.nxc"
4	40	199	#line 40 "C:\Users\NGUYEN~1\AppData\Local\Temp\temp.nxc"
4	41	199		set __Wait_7qG2_ms_7qG2_000_inline_avoidObtacle, 1000
4	40	202	#line 40 "C:\Users\NGUYEN~1\AppData\Local\Temp\temp.nxc"
4	8551	202	#line 8551 "NXCDefs.h"
4	8552	202		waitv __Wait_7qG2_ms_7qG2_000_inline_avoidObtacle
4	8551	204	#line 8551 "NXCDefs.h"
4	41	204	#line 41 "C:\Users\NGUYEN~1\AppData\Local\Temp\temp.nxc"
4	42	204	#line 42 "C:\Users\NGUYEN~1\AppData\Local\Temp\temp.nxc"
4	43	204		subret __avoidObtacle_return
5	67	0	#line 67 "C:\Users\NGUYEN~1\AppData\Local\Temp\temp.nxc"
5	68	0		subret ____initialize_global_data_return
#CLUMPS
Clump	Name	Offset	File
0	main	0	C:\Users\NGUYEN~1\AppData\Local\Temp\temp.nxc
1	__ResetSensorSubroutine	177	NXTDefs.h
2	__ReadLSBytes3	190	NXTDefs.h
3	followLine	275	C:\Users\NGUYEN~1\AppData\Local\Temp\temp.nxc
4	avoidObtacle	353	C:\Users\NGUYEN~1\AppData\Local\Temp\temp.nxc
5	__initialize_global_data	559	C:\Users\NGUYEN~1\AppData\Local\Temp\temp.nxc
